; Function Attrs: mustprogress nofree norecurse nosync nounwind willreturn memory(argmem: read) uwtable
define hidden noundef range(i32 2, 4) i32 @_ZNK19OpenColorIO_v2_5dev11Lut3DOpData24getConcreteInterpolationEv(ptr noundef nonnull readonly align 8 captures(none) dereferenceable(232) %0) local_unnamed_addr #11 align 2 {
  %2 = getelementptr inbounds nuw i8, ptr %0, i64 168
  %3 = load i32, ptr %2, align 8, !tbaa !71
  %switch.selectcmp.case1.i = icmp eq i32 %3, 255
  %switch.selectcmp.case2.i = icmp eq i32 %3, 3
  %switch.selectcmp.i = or i1 %switch.selectcmp.case1.i, %switch.selectcmp.case2.i
  %4 = select i1 %switch.selectcmp.i, i32 3, i32 2
  ret i32 %4
}